; Function Attrs: mustprogress uwtable
define void @_ZNK13medeleg_csr_t18verify_permissionsE6insn_tb(ptr noundef nonnull readonly align 8 captures(none) dereferenceable(56) %0, i64 %1, i1 noundef zeroext %2) unnamed_addr #4 align 2 personality ptr @__gxx_personality_v0 {
  tail call void @_ZNK5csr_t18verify_permissionsE6insn_tb(ptr noundef nonnull align 8 dereferenceable(37) %0, i64 %1, i1 noundef zeroext %2)
  %4 = getelementptr inbounds nuw i8, ptr %0, i64 8
  %5 = load ptr, ptr %4, align 8, !tbaa !6
  %6 = getelementptr inbounds nuw i8, ptr %5, i64 1104
  %7 = load ptr, ptr %6, align 8
  %8 = getelementptr inbounds nuw i8, ptr %7, i64 40
  %.sink.i.i = load i64, ptr %8, align 8, !tbaa !96
  %9 = and i64 %.sink.i.i, 262144
  %.0.i.i.not = icmp eq i64 %9, 0
  br i1 %.0.i.i.not, label %10, label %15

10:                                               ; preds = %3
  %11 = tail call ptr @__cxa_allocate_exception(i64 32) #30
  %12 = getelementptr inbounds nuw i8, ptr %11, i64 8
  store i64 2, ptr %12, align 8, !tbaa !97
  %13 = getelementptr inbounds nuw i8, ptr %11, i64 16
  store i8 0, ptr %13, align 8, !tbaa !99
  %14 = getelementptr inbounds nuw i8, ptr %11, i64 24
  store i64 %1, ptr %14, align 8, !tbaa !101
  store ptr getelementptr inbounds nuw inrange(-16, 80) (i8, ptr @_ZTV24trap_illegal_instruction, i64 16), ptr %11, align 8, !tbaa !3
  tail call void @__cxa_throw(ptr nonnull %11, ptr nonnull @_ZTI24trap_illegal_instruction, ptr nonnull @_ZN6trap_tD2Ev) #31
  unreachable

15:                                               ; preds = %3
  ret void
}